target datalayout = "e-m:e-p270:32:32-p271:32:32-p272:64:64-i64:64-i128:128-f80:128-n8:16:32:64-S128"
target triple = "x86_64-pc-linux-gnu"

%"class.net::QuicPacketGenerator" = type { ptr, %"class.net::QuicPacketCreator", %"class.std::vector", i8, i8, i8, [5 x i8], %"struct.net::QuicAckFrame", %"struct.net::QuicStopWaitingFrame" }
%"class.net::QuicPacketCreator" = type { ptr, ptr, ptr, %"class.net::QuicPacketCreator::QuicRandomBoolSource", ptr, i8, i8, i8, i8, %"struct.std::array", i64, i64, i32, %"class.std::vector", i64, i64, %"struct.net::SerializedPacket", %"class.std::unordered_map" }
%"class.net::QuicPacketCreator::QuicRandomBoolSource" = type { ptr, i64, i64 }
%"struct.std::array" = type { [32 x i8] }
%"struct.net::SerializedPacket" = type { ptr, i16, %"class.std::vector", i8, i16, i8, i64, i8, i8, i8, i8, i8, i8, i8, i64, %"class.std::__cxx11::list" }
%"class.std::__cxx11::list" = type { %"class.std::__cxx11::_List_base" }
%"class.std::__cxx11::_List_base" = type { %"struct.std::__cxx11::_List_base<net::AckListenerWrapper, std::allocator<net::AckListenerWrapper>>::_List_impl" }
%"struct.std::__cxx11::_List_base<net::AckListenerWrapper, std::allocator<net::AckListenerWrapper>>::_List_impl" = type { %"struct.std::__detail::_List_node_header" }
%"struct.std::__detail::_List_node_header" = type { %"struct.std::__detail::_List_node_base", i64 }
%"struct.std::__detail::_List_node_base" = type { ptr, ptr }
%"class.std::unordered_map" = type { %"class.std::_Hashtable" }
%"class.std::_Hashtable" = type { ptr, i64, %"struct.std::__detail::_Hash_node_base", i64, %"struct.std::__detail::_Prime_rehash_policy", ptr }
%"struct.std::__detail::_Hash_node_base" = type { ptr }
%"struct.std::__detail::_Prime_rehash_policy" = type { float, i64 }
%"class.std::vector" = type { %"struct.std::_Vector_base" }
%"struct.std::_Vector_base" = type { %"struct.std::_Vector_base<net::QuicFrame, std::allocator<net::QuicFrame>>::_Vector_impl" }
%"struct.std::_Vector_base<net::QuicFrame, std::allocator<net::QuicFrame>>::_Vector_impl" = type { %"struct.std::_Vector_base<net::QuicFrame, std::allocator<net::QuicFrame>>::_Vector_impl_data" }
%"struct.std::_Vector_base<net::QuicFrame, std::allocator<net::QuicFrame>>::_Vector_impl_data" = type { ptr, ptr, ptr }
%"struct.net::QuicAckFrame" = type <{ i64, %"class.net::QuicTime::Delta", %"class.std::vector.8", %"class.net::PacketNumberQueue", i8, i8, i8, i8, [4 x i8] }>
%"class.net::QuicTime::Delta" = type { %"class.base::TimeDelta", i64 }
%"class.base::TimeDelta" = type { i64 }
%"class.std::vector.8" = type { %"struct.std::_Vector_base.9" }
%"struct.std::_Vector_base.9" = type { %"struct.std::_Vector_base<std::pair<unsigned long, net::QuicTime>, std::allocator<std::pair<unsigned long, net::QuicTime>>>::_Vector_impl" }
%"struct.std::_Vector_base<std::pair<unsigned long, net::QuicTime>, std::allocator<std::pair<unsigned long, net::QuicTime>>>::_Vector_impl" = type { %"struct.std::_Vector_base<std::pair<unsigned long, net::QuicTime>, std::allocator<std::pair<unsigned long, net::QuicTime>>>::_Vector_impl_data" }
%"struct.std::_Vector_base<std::pair<unsigned long, net::QuicTime>, std::allocator<std::pair<unsigned long, net::QuicTime>>>::_Vector_impl_data" = type { ptr, ptr, ptr }
%"class.net::PacketNumberQueue" = type { %"class.net::IntervalSet" }
%"class.net::IntervalSet" = type { %"class.std::set" }
%"class.std::set" = type { %"class.std::_Rb_tree" }
%"class.std::_Rb_tree" = type { %"struct.std::_Rb_tree<net::Interval<unsigned long>, net::Interval<unsigned long>, std::_Identity<net::Interval<unsigned long>>, net::IntervalSet<unsigned long>::IntervalComparator>::_Rb_tree_impl" }
%"struct.std::_Rb_tree<net::Interval<unsigned long>, net::Interval<unsigned long>, std::_Identity<net::Interval<unsigned long>>, net::IntervalSet<unsigned long>::IntervalComparator>::_Rb_tree_impl" = type { [8 x i8], %"struct.std::_Rb_tree_header" }
%"struct.std::_Rb_tree_header" = type { %"struct.std::_Rb_tree_node_base", i64 }
%"struct.std::_Rb_tree_node_base" = type { i32, ptr, ptr, ptr }
%"struct.net::QuicStopWaitingFrame" = type { i8, i8, i64 }
%"class.logging::LogMessage" = type <{ i32, [4 x i8], %"class.std::__cxx11::basic_ostringstream", i64, ptr, i32, [4 x i8] }>
%"class.std::__cxx11::basic_ostringstream" = type { %"class.std::basic_ostream.base", %"class.std::__cxx11::basic_stringbuf", %"class.std::basic_ios" }
%"class.std::basic_ostream.base" = type { ptr }
%"class.std::__cxx11::basic_stringbuf" = type { %"class.std::basic_streambuf", i32, %"class.std::__cxx11::basic_string" }
%"class.std::basic_streambuf" = type { ptr, ptr, ptr, ptr, ptr, ptr, ptr, %"class.std::locale" }
%"class.std::locale" = type { ptr }
%"class.std::__cxx11::basic_string" = type { %"struct.std::__cxx11::basic_string<char>::_Alloc_hider", i64, %union.anon }
%"struct.std::__cxx11::basic_string<char>::_Alloc_hider" = type { ptr }
%union.anon = type { i64, [8 x i8] }
%"class.std::basic_ios" = type { %"class.std::ios_base", ptr, i8, i8, ptr, ptr, ptr, ptr }
%"class.std::ios_base" = type { ptr, i64, i64, i32, i32, i32, ptr, %"struct.std::ios_base::_Words", [8 x %"struct.std::ios_base::_Words"], i32, ptr, %"class.std::locale" }
%"struct.std::ios_base::_Words" = type { ptr, i64 }
%"struct.net::QuicIOVector" = type { ptr, i32, i64 }
%"struct.net::QuicConsumedData" = type <{ i64, i8, [7 x i8] }>
%"class.logging::CheckOpResult" = type { ptr }

@.str = private unnamed_addr constant [136 x i8] c"generated/home/dtcxzyw/WorkSpace/Projects/compilers/llvm-opt-benchmark/bench/libquic/libquic/src/net/quic/core/quic_packet_generator.cc\00", align 1

; Function Attrs: mustprogress nounwind uwtable
define linkonce_odr noundef nonnull align 8 dereferenceable(8) ptr @_ZN7logging10LogMessage6streamEv(ptr noundef nonnull align 8 dereferenceable(404) %0) #2 comdat align 2 {
  %2 = alloca ptr, align 8
  store ptr %0, ptr %2, align 8, !tbaa !93
  %3 = load ptr, ptr %2, align 8
  %4 = getelementptr inbounds nuw %"class.logging::LogMessage", ptr %3, i32 0, i32 2
  ret ptr %4
}

; Function Attrs: mustprogress nounwind uwtable
define linkonce_odr noundef ptr @_ZN7logging13CheckOpResult7messageB5cxx11Ev(ptr noundef nonnull align 8 dereferenceable(8) %0) #2 comdat align 2 {
  %2 = alloca ptr, align 8
  store ptr %0, ptr %2, align 8, !tbaa !124
  %3 = load ptr, ptr %2, align 8
  %4 = getelementptr inbounds nuw %"class.logging::CheckOpResult", ptr %3, i32 0, i32 0
  %5 = load ptr, ptr %4, align 8, !tbaa !128
  ret ptr %5
}

; Function Attrs: mustprogress nounwind uwtable
define linkonce_odr noundef zeroext i1 @_ZNK7logging13CheckOpResultcvbEv(ptr noundef nonnull align 8 dereferenceable(8) %0) #2 comdat align 2 {
  %2 = alloca ptr, align 8
  store ptr %0, ptr %2, align 8, !tbaa !124
  %3 = load ptr, ptr %2, align 8
  %4 = getelementptr inbounds nuw %"class.logging::CheckOpResult", ptr %3, i32 0, i32 0
  %5 = load ptr, ptr %4, align 8, !tbaa !128
  %6 = icmp ne ptr %5, null
  %7 = xor i1 %6, true
  ret i1 %7
}

; Function Attrs: mustprogress nounwind uwtable
define linkonce_odr void @_ZN7logging13CheckOpResultC2EPNSt7__cxx1112basic_stringIcSt11char_traitsIcESaIcEEE(ptr noundef nonnull align 8 dereferenceable(8) %0, ptr noundef %1) unnamed_addr #2 comdat align 2 {
  %3 = alloca ptr, align 8
  %4 = alloca ptr, align 8
  store ptr %0, ptr %3, align 8, !tbaa !124
  store ptr %1, ptr %4, align 8, !tbaa !126
  %5 = load ptr, ptr %3, align 8
  %6 = getelementptr inbounds nuw %"class.logging::CheckOpResult", ptr %5, i32 0, i32 0
  %7 = load ptr, ptr %4, align 8, !tbaa !126
  store ptr %7, ptr %6, align 8, !tbaa !128
  ret void
}

; Function Attrs: mustprogress uwtable
define { i64, i8 } @_ZN3net19QuicPacketGenerator19ConsumeDataFastPathEjRKNS_12QuicIOVectorEmbPNS_24QuicAckListenerInterfaceE(ptr noundef nonnull align 8 dereferenceable(472) %0, i32 noundef %1, ptr noundef nonnull align 8 dereferenceable(24) %2, i64 noundef %3, i1 noundef zeroext %4, ptr noundef %5) #0 align 2 personality ptr @__gxx_personality_v0 {
  %7 = alloca %"struct.net::QuicConsumedData", align 8
  %8 = alloca ptr, align 8
  %9 = alloca i32, align 4
  %10 = alloca ptr, align 8
  %11 = alloca i64, align 8
  %12 = alloca i8, align 1
  %13 = alloca ptr, align 8
  %14 = alloca %"class.logging::CheckOpResult", align 8
  %15 = alloca %"class.logging::LogMessage", align 8
  %16 = alloca ptr, align 8
  %17 = alloca i32, align 4
  %18 = alloca i64, align 8
  %19 = alloca i64, align 8
  store ptr %0, ptr %8, align 8, !tbaa !3
  store i32 %1, ptr %9, align 4, !tbaa !99
  store ptr %2, ptr %10, align 8, !tbaa !121
  store i64 %3, ptr %11, align 8, !tbaa !8
  %20 = zext i1 %4 to i8
  store i8 %20, ptr %12, align 1, !tbaa !79
  store ptr %5, ptr %13, align 8, !tbaa !101
  %21 = load ptr, ptr %8, align 8
  call void @llvm.lifetime.start.p0(i64 8, ptr %14) #13
  call void @_ZN7logging13CheckOpResultC2EPNSt7__cxx1112basic_stringIcSt11char_traitsIcESaIcEEE(ptr noundef nonnull align 8 dereferenceable(8) %14, ptr noundef null)
  %22 = call noundef zeroext i1 @_ZNK7logging13CheckOpResultcvbEv(ptr noundef nonnull align 8 dereferenceable(8) %14)
  br i1 %22, label %23, label %24

23:                                               ; preds = %6
  br label %32

24:                                               ; preds = %6
  call void @llvm.lifetime.start.p0(i64 408, ptr %15) #13
  %25 = call noundef ptr @_ZN7logging13CheckOpResult7messageB5cxx11Ev(ptr noundef nonnull align 8 dereferenceable(8) %14)
  call void @_ZN7logging10LogMessageC1EPKciiPNSt7__cxx1112basic_stringIcSt11char_traitsIcESaIcEEE(ptr noundef nonnull align 8 dereferenceable(404) %15, ptr noundef @.str, i32 noundef 134, i32 noundef 0, ptr noundef %25)
  %26 = invoke noundef nonnull align 8 dereferenceable(8) ptr @_ZN7logging10LogMessage6streamEv(ptr noundef nonnull align 8 dereferenceable(404) %15)
          to label %27 unwind label %28

27:                                               ; preds = %24
  call void @_ZN7logging10LogMessageD1Ev(ptr noundef nonnull align 8 dereferenceable(404) %15) #13
  call void @llvm.lifetime.end.p0(i64 408, ptr %15) #13
  br label %32

28:                                               ; preds = %24
  %29 = landingpad { ptr, i32 }
          cleanup
  %30 = extractvalue { ptr, i32 } %29, 0
  store ptr %30, ptr %16, align 8
  %31 = extractvalue { ptr, i32 } %29, 1
  store i32 %31, ptr %17, align 4
  call void @_ZN7logging10LogMessageD1Ev(ptr noundef nonnull align 8 dereferenceable(404) %15) #13
  call void @llvm.lifetime.end.p0(i64 408, ptr %15) #13
  call void @llvm.lifetime.end.p0(i64 8, ptr %14) #13
  br label %75

32:                                               ; preds = %27, %23
  call void @llvm.lifetime.end.p0(i64 8, ptr %14) #13
  call void @llvm.lifetime.start.p0(i64 8, ptr %18) #13
  store i64 0, ptr %18, align 8, !tbaa !8
  br label %33

33:                                               ; preds = %48, %32
  %34 = load i64, ptr %18, align 8, !tbaa !8
  %35 = load ptr, ptr %10, align 8, !tbaa !121
  %36 = getelementptr inbounds nuw %"struct.net::QuicIOVector", ptr %35, i32 0, i32 2
  %37 = load i64, ptr %36, align 8, !tbaa !103
  %38 = icmp ult i64 %34, %37
  br i1 %38, label %39, label %46

39:                                               ; preds = %33
  %40 = getelementptr inbounds nuw %"class.net::QuicPacketGenerator", ptr %21, i32 0, i32 0
  %41 = load ptr, ptr %40, align 8, !tbaa !18
  %42 = load ptr, ptr %41, align 8, !tbaa !91
  %43 = getelementptr inbounds ptr, ptr %42, i64 4
  %44 = load ptr, ptr %43, align 8
  %45 = call noundef zeroext i1 %44(ptr noundef nonnull align 8 dereferenceable(8) %41, i8 noundef signext 1, i8 noundef signext 0)
  br label %46

46:                                               ; preds = %39, %33
  %47 = phi i1 [ false, %33 ], [ %45, %39 ]
  br i1 %47, label %48, label %62

48:                                               ; preds = %46
  call void @llvm.lifetime.start.p0(i64 8, ptr %19) #13
  store i64 0, ptr %19, align 8, !tbaa !8
  %49 = getelementptr inbounds nuw %"class.net::QuicPacketGenerator", ptr %21, i32 0, i32 1
  %50 = load i32, ptr %9, align 4, !tbaa !99
  %51 = load ptr, ptr %10, align 8, !tbaa !121
  %52 = load i64, ptr %18, align 8, !tbaa !8
  %53 = load i64, ptr %11, align 8, !tbaa !8
  %54 = load i64, ptr %18, align 8, !tbaa !8
  %55 = add i64 %53, %54
  %56 = load i8, ptr %12, align 1, !tbaa !79, !range !80, !noundef !81
  %57 = trunc i8 %56 to i1
  %58 = load ptr, ptr %13, align 8, !tbaa !101
  call void @_ZN3net17QuicPacketCreator29CreateAndSerializeStreamFrameEjRKNS_12QuicIOVectorEmmbPNS_24QuicAckListenerInterfaceEPm(ptr noundef nonnull align 8 dereferenceable(312) %49, i32 noundef %50, ptr noundef nonnull align 8 dereferenceable(24) %51, i64 noundef %52, i64 noundef %55, i1 noundef zeroext %57, ptr noundef %58, ptr noundef %19)
  %59 = load i64, ptr %19, align 8, !tbaa !8
  %60 = load i64, ptr %18, align 8, !tbaa !8
  %61 = add i64 %60, %59
  store i64 %61, ptr %18, align 8, !tbaa !8
  call void @llvm.lifetime.end.p0(i64 8, ptr %19) #13
  br label %33, !llvm.loop !123

62:                                               ; preds = %46
  %63 = load i64, ptr %18, align 8, !tbaa !8
  %64 = load i8, ptr %12, align 1, !tbaa !79, !range !80, !noundef !81
  %65 = trunc i8 %64 to i1
  br i1 %65, label %66, label %72

66:                                               ; preds = %62
  %67 = load i64, ptr %18, align 8, !tbaa !8
  %68 = load ptr, ptr %10, align 8, !tbaa !121
  %69 = getelementptr inbounds nuw %"struct.net::QuicIOVector", ptr %68, i32 0, i32 2
  %70 = load i64, ptr %69, align 8, !tbaa !103
  %71 = icmp eq i64 %67, %70
  br label %72

72:                                               ; preds = %66, %62
  %73 = phi i1 [ false, %62 ], [ %71, %66 ]
  call void @_ZN3net16QuicConsumedDataC1Emb(ptr noundef nonnull align 8 dereferenceable(9) %7, i64 noundef %63, i1 noundef zeroext %73)
  call void @llvm.lifetime.end.p0(i64 8, ptr %18) #13
  %74 = load { i64, i8 }, ptr %7, align 8
  ret { i64, i8 } %74

75:                                               ; preds = %28
  %76 = load ptr, ptr %16, align 8
  %77 = load i32, ptr %17, align 4
  %78 = insertvalue { ptr, i32 } poison, ptr %76, 0
  %79 = insertvalue { ptr, i32 } %78, i32 %77, 1
  resume { ptr, i32 } %79
}