; Function Attrs: mustprogress uwtable
define { i64, i8 } @_ZN3net19QuicPacketGenerator19ConsumeDataFastPathEjRKNS_12QuicIOVectorEmbPNS_24QuicAckListenerInterfaceE(ptr noundef nonnull align 8 dereferenceable(472) %0, i32 noundef %1, ptr noundef nonnull align 8 dereferenceable(24) %2, i64 noundef %3, i1 noundef zeroext %4, ptr noundef %5) local_unnamed_addr #0 align 2 personality ptr @__gxx_personality_v0 {
  %7 = alloca %"struct.net::QuicConsumedData", align 8
  %8 = alloca i64, align 8
  %9 = getelementptr inbounds nuw i8, ptr %2, i64 16
  %10 = load i64, ptr %9, align 8, !tbaa !101
  %.not = icmp eq i64 %10, 0
  br i1 %.not, label %.critedge, label %.lr.ph

.lr.ph:                                           ; preds = %6
  %11 = getelementptr inbounds nuw i8, ptr %0, i64 8
  br label %12

12:                                               ; preds = %.lr.ph, %18
  %.015 = phi i64 [ 0, %.lr.ph ], [ %21, %18 ]
  %13 = load ptr, ptr %0, align 8, !tbaa !3
  %14 = load ptr, ptr %13, align 8, !tbaa !73
  %15 = getelementptr inbounds nuw i8, ptr %14, i64 32
  %16 = load ptr, ptr %15, align 8
  %17 = call noundef zeroext i1 %16(ptr noundef nonnull align 8 dereferenceable(8) %13, i8 noundef signext 1, i8 noundef signext 0)
  br i1 %17, label %18, label %..critedge.loopexit_crit_edge

..critedge.loopexit_crit_edge:                    ; preds = %12
  %.pre.pre = load i64, ptr %9, align 8
  br label %.critedge

18:                                               ; preds = %12
  call void @llvm.lifetime.start.p0(i64 8, ptr nonnull %8) #16
  store i64 0, ptr %8, align 8, !tbaa !104
  %19 = add i64 %.015, %3
  call void @_ZN3net17QuicPacketCreator29CreateAndSerializeStreamFrameEjRKNS_12QuicIOVectorEmmbPNS_24QuicAckListenerInterfaceEPm(ptr noundef nonnull align 8 dereferenceable(312) %11, i32 noundef %1, ptr noundef nonnull align 8 dereferenceable(24) %2, i64 noundef %.015, i64 noundef %19, i1 noundef zeroext %4, ptr noundef %5, ptr noundef nonnull %8)
  %20 = load i64, ptr %8, align 8, !tbaa !104
  %21 = add i64 %20, %.015
  call void @llvm.lifetime.end.p0(i64 8, ptr nonnull %8) #16
  %22 = load i64, ptr %9, align 8, !tbaa !101
  %23 = icmp ult i64 %21, %22
  br i1 %23, label %12, label %.critedge, !llvm.loop !105

.critedge:                                        ; preds = %18, %..critedge.loopexit_crit_edge, %6
  %24 = phi i64 [ 0, %6 ], [ %.pre.pre, %..critedge.loopexit_crit_edge ], [ %22, %18 ]
  %.0.lcssa = phi i64 [ 0, %6 ], [ %.015, %..critedge.loopexit_crit_edge ], [ %21, %18 ]
  %25 = icmp eq i64 %.0.lcssa, %24
  %26 = select i1 %4, i1 %25, i1 false
  call void @_ZN3net16QuicConsumedDataC1Emb(ptr noundef nonnull align 8 dereferenceable(9) %7, i64 noundef %.0.lcssa, i1 noundef zeroext %26)
  %.fca.0.load = load i64, ptr %7, align 8
  %.fca.0.insert = insertvalue { i64, i8 } poison, i64 %.fca.0.load, 0
  %.fca.1.gep = getelementptr inbounds nuw i8, ptr %7, i64 8
  %.fca.1.load = load i8, ptr %.fca.1.gep, align 8
  %.fca.1.insert = insertvalue { i64, i8 } %.fca.0.insert, i8 %.fca.1.load, 1
  ret { i64, i8 } %.fca.1.insert
}